target datalayout = "e-m:e-p270:32:32-p271:32:32-p272:64:64-i64:64-i128:128-f80:128-n8:16:32:64-S128"
target triple = "x86_64-pc-linux-gnu"

@.str.151 = private unnamed_addr constant [8 x i8] c"%lf,%lf\00", align 1
@posOf.root = internal global ptr null, align 8
@posOf.pos = internal global ptr null, align 8
@.str.172 = private unnamed_addr constant [4 x i8] c"pos\00", align 1

; Function Attrs: nounwind uwtable
define internal i32 @posOf(ptr noundef %0, i32 noundef %1, ptr noundef %2) #0 {
  %4 = alloca i32, align 4
  %5 = alloca ptr, align 8
  %6 = alloca i32, align 4
  %7 = alloca ptr, align 8
  %8 = alloca ptr, align 8
  %9 = alloca ptr, align 8
  %10 = alloca [2 x double], align 16
  %11 = alloca i32, align 4
  store ptr %0, ptr %5, align 8, !tbaa !93
  store i32 %1, ptr %6, align 4, !tbaa !26
  store ptr %2, ptr %7, align 8, !tbaa !144
  call void @llvm.lifetime.start.p0(i64 8, ptr %8) #16
  %12 = load ptr, ptr %5, align 8, !tbaa !93
  %13 = call ptr @agroot(ptr noundef %12)
  store ptr %13, ptr %8, align 8, !tbaa !92
  call void @llvm.lifetime.start.p0(i64 8, ptr %9) #16
  call void @llvm.lifetime.start.p0(i64 16, ptr %10) #16
  %14 = load ptr, ptr @posOf.root, align 8, !tbaa !92
  %15 = load ptr, ptr %8, align 8, !tbaa !92
  %16 = icmp ne ptr %14, %15
  br i1 %16, label %17, label %21

17:                                               ; preds = %3
  %18 = load ptr, ptr %8, align 8, !tbaa !92
  store ptr %18, ptr @posOf.root, align 8, !tbaa !92
  %19 = load ptr, ptr @posOf.root, align 8, !tbaa !92
  %20 = call ptr @agattr(ptr noundef %19, i32 noundef 1, ptr noundef @.str.172, ptr noundef null)
  store ptr %20, ptr @posOf.pos, align 8, !tbaa !119
  br label %21

21:                                               ; preds = %17, %3
  %22 = load ptr, ptr @posOf.pos, align 8, !tbaa !119
  %23 = icmp ne ptr %22, null
  br i1 %23, label %25, label %24

24:                                               ; preds = %21
  store i32 -1, ptr %4, align 4
  store i32 1, ptr %11, align 4
  br label %41

25:                                               ; preds = %21
  %26 = load ptr, ptr %5, align 8, !tbaa !93
  %27 = load ptr, ptr @posOf.pos, align 8, !tbaa !119
  %28 = call ptr @agxget(ptr noundef %26, ptr noundef %27)
  store ptr %28, ptr %9, align 8, !tbaa !7
  %29 = load ptr, ptr %9, align 8, !tbaa !7
  %30 = getelementptr inbounds [2 x double], ptr %10, i64 0, i64 0
  %31 = getelementptr inbounds [2 x double], ptr %10, i64 0, i64 1
  %32 = call i32 (ptr, ptr, ...) @__isoc99_sscanf(ptr noundef %29, ptr noundef @.str.151, ptr noundef %30, ptr noundef %31) #16
  %33 = icmp eq i32 %32, 2
  br i1 %33, label %34, label %40

34:                                               ; preds = %25
  %35 = load i32, ptr %6, align 4, !tbaa !26
  %36 = sext i32 %35 to i64
  %37 = getelementptr inbounds [2 x double], ptr %10, i64 0, i64 %36
  %38 = load double, ptr %37, align 8, !tbaa !146
  %39 = load ptr, ptr %7, align 8, !tbaa !144
  store double %38, ptr %39, align 8, !tbaa !146
  store i32 0, ptr %4, align 4
  store i32 1, ptr %11, align 4
  br label %41

40:                                               ; preds = %25
  store i32 -1, ptr %4, align 4
  store i32 1, ptr %11, align 4
  br label %41

41:                                               ; preds = %40, %34, %24
  call void @llvm.lifetime.end.p0(i64 16, ptr %10) #16
  call void @llvm.lifetime.end.p0(i64 8, ptr %9) #16
  call void @llvm.lifetime.end.p0(i64 8, ptr %8) #16
  %42 = load i32, ptr %4, align 4
  ret i32 %42
}