; Function Attrs: nounwind uwtable
define internal fastcc range(i32 -1, 1) i32 @posOf(ptr noundef nonnull %0, i32 noundef range(i32 0, 2) %1, ptr noundef nonnull writeonly captures(none) %2) unnamed_addr #0 {
  %4 = alloca [2 x double], align 16
  %5 = tail call ptr @agroot(ptr noundef nonnull %0) #25
  call void @llvm.lifetime.start.p0(i64 16, ptr nonnull %4) #25
  %6 = load ptr, ptr @posOf.root, align 8, !tbaa !138
  %.not = icmp eq ptr %6, %5
  br i1 %.not, label %thread-pre-split, label %7

7:                                                ; preds = %3
  store ptr %5, ptr @posOf.root, align 8, !tbaa !138
  %8 = tail call ptr @agattr(ptr noundef %5, i32 noundef 1, ptr noundef nonnull @.str.172, ptr noundef null) #25
  store ptr %8, ptr @posOf.pos, align 8, !tbaa !139
  br label %9

thread-pre-split:                                 ; preds = %3
  %.pr = load ptr, ptr @posOf.pos, align 8, !tbaa !139
  br label %9

9:                                                ; preds = %thread-pre-split, %7
  %10 = phi ptr [ %.pr, %thread-pre-split ], [ %8, %7 ]
  %.not9 = icmp eq ptr %10, null
  br i1 %.not9, label %20, label %11

11:                                               ; preds = %9
  %12 = tail call ptr @agxget(ptr noundef nonnull %0, ptr noundef nonnull %10) #25
  %13 = getelementptr inbounds nuw i8, ptr %4, i64 8
  %14 = call i32 (ptr, ptr, ...) @__isoc99_sscanf(ptr noundef %12, ptr noundef nonnull @.str.151, ptr noundef nonnull %4, ptr noundef nonnull %13) #25
  %15 = icmp eq i32 %14, 2
  br i1 %15, label %16, label %20

16:                                               ; preds = %11
  %17 = zext nneg i32 %1 to i64
  %18 = getelementptr inbounds nuw [2 x double], ptr %4, i64 0, i64 %17
  %19 = load double, ptr %18, align 8, !tbaa !141
  store double %19, ptr %2, align 8, !tbaa !141
  br label %20

20:                                               ; preds = %11, %9, %16
  %.0 = phi i32 [ 0, %16 ], [ -1, %9 ], [ -1, %11 ]
  call void @llvm.lifetime.end.p0(i64 16, ptr nonnull %4) #25
  ret i32 %.0
}